target datalayout = "e-m:e-p270:32:32-p271:32:32-p272:64:64-i64:64-i128:128-f80:128-n8:16:32:64-S128"
target triple = "x86_64-unknown-linux-gnu"

%"class.re2::Regexp" = type { i8, i8, i16, i16, i16, %union.anon, ptr, %union.anon.0 }
%union.anon = type { ptr }
%union.anon.0 = type { %struct.anon.1 }
%struct.anon.1 = type { i32, ptr }
%"class.absl::debian2::MutexLock" = type { ptr }
%"struct.re2::RefStorage" = type { %"class.absl::debian2::Mutex", %"class.absl::debian2::flat_hash_map" }
%"class.absl::debian2::Mutex" = type { %"struct.std::atomic.28" }
%"struct.std::atomic.28" = type { %"struct.std::__atomic_base.29" }
%"struct.std::__atomic_base.29" = type { i64 }
%"class.absl::debian2::flat_hash_map" = type { %"class.absl::debian2::container_internal::raw_hash_map" }
%"class.absl::debian2::container_internal::raw_hash_map" = type { %"class.absl::debian2::container_internal::raw_hash_set" }
%"class.absl::debian2::container_internal::raw_hash_set" = type { ptr, ptr, i64, i64, %"class.absl::debian2::container_internal::CompressedTuple" }
%"class.absl::debian2::container_internal::CompressedTuple" = type { %"struct.absl::debian2::container_internal::internal_compressed_tuple::CompressedTupleImpl" }
%"struct.absl::debian2::container_internal::internal_compressed_tuple::CompressedTupleImpl" = type { %"struct.absl::debian2::container_internal::internal_compressed_tuple::Storage" }
%"struct.absl::debian2::container_internal::internal_compressed_tuple::Storage" = type { i64 }

@_ZN3re2L11ref_storageE = internal global [48 x i8] zeroinitializer, align 8

; Function Attrs: mustprogress nounwind uwtable
define linkonce_odr void @_ZN4absl7debian29MutexLockD2Ev(ptr noundef nonnull align 8 dereferenceable(8) %this) unnamed_addr #0 comdat align 2 personality ptr @__gxx_personality_v0 {
entry:
  %this.addr = alloca ptr, align 8
  store ptr %this, ptr %this.addr, align 8
  %this1 = load ptr, ptr %this.addr, align 8
  %mu_ = getelementptr inbounds %"class.absl::debian2::MutexLock", ptr %this1, i32 0, i32 0
  %0 = load ptr, ptr %mu_, align 8
  invoke void @_ZN4absl7debian25Mutex6UnlockEv(ptr noundef nonnull align 8 dereferenceable(8) %0)
          to label %invoke.cont unwind label %terminate.lpad

invoke.cont:                                      ; preds = %entry
  ret void

terminate.lpad:                                   ; preds = %entry
  %1 = landingpad { ptr, i32 }
          catch ptr null
  %2 = extractvalue { ptr, i32 } %1, 0
  call void @__clang_call_terminate(ptr %2) #18
  unreachable
}

; Function Attrs: mustprogress nounwind uwtable
define internal noundef ptr @_ZN3re2L7ref_mapEv() #0 {
entry:
  ret ptr getelementptr inbounds (%"struct.re2::RefStorage", ptr @_ZN3re2L11ref_storageE, i32 0, i32 1)
}

; Function Attrs: mustprogress uwtable
define linkonce_odr void @_ZN4absl7debian29MutexLockC2EPNS0_5MutexE(ptr noundef nonnull align 8 dereferenceable(8) %this, ptr noundef %mu) unnamed_addr #3 comdat align 2 {
entry:
  %this.addr = alloca ptr, align 8
  %mu.addr = alloca ptr, align 8
  store ptr %this, ptr %this.addr, align 8
  store ptr %mu, ptr %mu.addr, align 8
  %this1 = load ptr, ptr %this.addr, align 8
  %mu_ = getelementptr inbounds %"class.absl::debian2::MutexLock", ptr %this1, i32 0, i32 0
  %0 = load ptr, ptr %mu.addr, align 8
  store ptr %0, ptr %mu_, align 8
  %mu_2 = getelementptr inbounds %"class.absl::debian2::MutexLock", ptr %this1, i32 0, i32 0
  %1 = load ptr, ptr %mu_2, align 8
  call void @_ZN4absl7debian25Mutex4LockEv(ptr noundef nonnull align 8 dereferenceable(8) %1)
  ret void
}

; Function Attrs: mustprogress nounwind uwtable
define internal noundef ptr @_ZN3re2L9ref_mutexEv() #0 {
entry:
  ret ptr @_ZN3re2L11ref_storageE
}

; Function Attrs: mustprogress uwtable
define void @_ZN3re26Regexp6DecrefEv(ptr noundef nonnull align 8 dereferenceable(40) %this) #3 align 2 personality ptr @__gxx_personality_v0 {
entry:
  %this.addr = alloca ptr, align 8
  %l = alloca %"class.absl::debian2::MutexLock", align 8
  %r = alloca i32, align 4
  %exn.slot = alloca ptr, align 8
  %ehselector.slot = alloca i32, align 4
  %ref.tmp = alloca ptr, align 8
  %ref.tmp11 = alloca ptr, align 8
  %ref.tmp16 = alloca ptr, align 8
  store ptr %this, ptr %this.addr, align 8
  %this1 = load ptr, ptr %this.addr, align 8
  %ref_ = getelementptr inbounds %"class.re2::Regexp", ptr %this1, i32 0, i32 3
  %0 = load i16, ptr %ref_, align 4
  %conv = zext i16 %0 to i32
  %cmp = icmp eq i32 %conv, 65535
  br i1 %cmp, label %if.then, label %if.end19

if.then:                                          ; preds = %entry
  %call = call noundef ptr @_ZN3re2L9ref_mutexEv()
  call void @_ZN4absl7debian29MutexLockC2EPNS0_5MutexE(ptr noundef nonnull align 8 dereferenceable(8) %l, ptr noundef %call)
  %call2 = invoke noundef ptr @_ZN3re2L7ref_mapEv()
          to label %invoke.cont unwind label %lpad

invoke.cont:                                      ; preds = %if.then
  store ptr %this1, ptr %ref.tmp, align 8
  %call4 = invoke noundef nonnull align 4 dereferenceable(4) ptr @_ZN4absl7debian218container_internal12raw_hash_mapINS1_17FlatHashMapPolicyIPN3re26RegexpEiEENS1_6HashEqIS6_vE4HashENS9_2EqESaISt4pairIKS6_iEEEixIS6_S7_TnPT_LPS6_0EEEDTclsrT0_5valueclL_ZSt9addressofISE_ESJ_RSI_EclL_ZSt7declvalIRSE_EDTcl9__declvalISI_ELi0EEEvEEEEEOSI_(ptr noundef nonnull align 8 dereferenceable(40) %call2, ptr noundef nonnull align 8 dereferenceable(8) %ref.tmp)
          to label %invoke.cont3 unwind label %lpad

invoke.cont3:                                     ; preds = %invoke.cont
  %1 = load i32, ptr %call4, align 4
  %sub = sub nsw i32 %1, 1
  store i32 %sub, ptr %r, align 4
  %2 = load i32, ptr %r, align 4
  %cmp5 = icmp slt i32 %2, 65535
  br i1 %cmp5, label %if.then6, label %if.else

if.then6:                                         ; preds = %invoke.cont3
  %3 = load i32, ptr %r, align 4
  %conv7 = trunc i32 %3 to i16
  %ref_8 = getelementptr inbounds %"class.re2::Regexp", ptr %this1, i32 0, i32 3
  store i16 %conv7, ptr %ref_8, align 4
  %call10 = invoke noundef ptr @_ZN3re2L7ref_mapEv()
          to label %invoke.cont9 unwind label %lpad

invoke.cont9:                                     ; preds = %if.then6
  store ptr %this1, ptr %ref.tmp11, align 8
  %call13 = invoke noundef i64 @_ZN4absl7debian218container_internal12raw_hash_setINS1_17FlatHashMapPolicyIPN3re26RegexpEiEENS1_6HashEqIS6_vE4HashENS9_2EqESaISt4pairIKS6_iEEE5eraseIS6_EEmRKT_(ptr noundef nonnull align 8 dereferenceable(40) %call10, ptr noundef nonnull align 8 dereferenceable(8) %ref.tmp11)
          to label %invoke.cont12 unwind label %lpad

invoke.cont12:                                    ; preds = %invoke.cont9
  br label %if.end

lpad:                                             ; preds = %invoke.cont14, %if.else, %invoke.cont9, %if.then6, %invoke.cont, %if.then
  %4 = landingpad { ptr, i32 }
          cleanup
  %5 = extractvalue { ptr, i32 } %4, 0
  store ptr %5, ptr %exn.slot, align 8
  %6 = extractvalue { ptr, i32 } %4, 1
  store i32 %6, ptr %ehselector.slot, align 4
  call void @_ZN4absl7debian29MutexLockD2Ev(ptr noundef nonnull align 8 dereferenceable(8) %l) #16
  br label %eh.resume

if.else:                                          ; preds = %invoke.cont3
  %7 = load i32, ptr %r, align 4
  %call15 = invoke noundef ptr @_ZN3re2L7ref_mapEv()
          to label %invoke.cont14 unwind label %lpad

invoke.cont14:                                    ; preds = %if.else
  store ptr %this1, ptr %ref.tmp16, align 8
  %call18 = invoke noundef nonnull align 4 dereferenceable(4) ptr @_ZN4absl7debian218container_internal12raw_hash_mapINS1_17FlatHashMapPolicyIPN3re26RegexpEiEENS1_6HashEqIS6_vE4HashENS9_2EqESaISt4pairIKS6_iEEEixIS6_S7_TnPT_LPS6_0EEEDTclsrT0_5valueclL_ZSt9addressofISE_ESJ_RSI_EclL_ZSt7declvalIRSE_EDTcl9__declvalISI_ELi0EEEvEEEEEOSI_(ptr noundef nonnull align 8 dereferenceable(40) %call15, ptr noundef nonnull align 8 dereferenceable(8) %ref.tmp16)
          to label %invoke.cont17 unwind label %lpad

invoke.cont17:                                    ; preds = %invoke.cont14
  store i32 %7, ptr %call18, align 4
  br label %if.end

if.end:                                           ; preds = %invoke.cont17, %invoke.cont12
  call void @_ZN4absl7debian29MutexLockD2Ev(ptr noundef nonnull align 8 dereferenceable(8) %l) #16
  br label %if.end25

if.end19:                                         ; preds = %entry
  %ref_20 = getelementptr inbounds %"class.re2::Regexp", ptr %this1, i32 0, i32 3
  %8 = load i16, ptr %ref_20, align 4
  %dec = add i16 %8, -1
  store i16 %dec, ptr %ref_20, align 4
  %ref_21 = getelementptr inbounds %"class.re2::Regexp", ptr %this1, i32 0, i32 3
  %9 = load i16, ptr %ref_21, align 4
  %conv22 = zext i16 %9 to i32
  %cmp23 = icmp eq i32 %conv22, 0
  br i1 %cmp23, label %if.then24, label %if.end25

if.then24:                                        ; preds = %if.end19
  call void @_ZN3re26Regexp7DestroyEv(ptr noundef nonnull align 8 dereferenceable(40) %this1)
  br label %if.end25

if.end25:                                         ; preds = %if.then24, %if.end19, %if.end
  ret void

eh.resume:                                        ; preds = %lpad
  %exn = load ptr, ptr %exn.slot, align 8
  %sel = load i32, ptr %ehselector.slot, align 4
  %lpad.val = insertvalue { ptr, i32 } poison, ptr %exn, 0
  %lpad.val26 = insertvalue { ptr, i32 } %lpad.val, i32 %sel, 1
  resume { ptr, i32 } %lpad.val26
}