; Function Attrs: mustprogress uwtable
define void @_ZN3re26Regexp6DecrefEv(ptr noundef nonnull align 8 dereferenceable(40) %this) local_unnamed_addr #7 align 2 personality ptr @__gxx_personality_v0 {
entry:
  %ref.tmp = alloca ptr, align 8
  %ref.tmp11 = alloca ptr, align 8
  %ref.tmp16 = alloca ptr, align 8
  %ref_ = getelementptr inbounds i8, ptr %this, i64 4
  %0 = load i16, ptr %ref_, align 4
  %cmp = icmp eq i16 %0, -1
  br i1 %cmp, label %if.then, label %if.end19

if.then:                                          ; preds = %entry
  tail call void @_ZN4absl7debian25Mutex4LockEv(ptr noundef nonnull align 8 dereferenceable(8) @_ZN3re2L11ref_storageE)
  store ptr %this, ptr %ref.tmp, align 8
  %call4 = invoke noundef nonnull align 4 dereferenceable(4) ptr @_ZN4absl7debian218container_internal12raw_hash_mapINS1_17FlatHashMapPolicyIPN3re26RegexpEiEENS1_6HashEqIS6_vE4HashENS9_2EqESaISt4pairIKS6_iEEEixIS6_S7_TnPT_LPS6_0EEEDTclsrT0_5valueclL_ZSt9addressofISE_ESJ_RSI_EclL_ZSt7declvalIRSE_EDTcl9__declvalISI_ELi0EEEvEEEEEOSI_(ptr noundef nonnull align 8 dereferenceable(40) getelementptr inbounds ([48 x i8], ptr @_ZN3re2L11ref_storageE, i64 0, i64 8), ptr noundef nonnull align 8 dereferenceable(8) %ref.tmp)
          to label %invoke.cont3 unwind label %lpad

invoke.cont3:                                     ; preds = %if.then
  %1 = load i32, ptr %call4, align 4
  %sub = add nsw i32 %1, -1
  %cmp5 = icmp slt i32 %1, 65536
  br i1 %cmp5, label %if.then6, label %if.else

if.then6:                                         ; preds = %invoke.cont3
  %conv7 = trunc i32 %sub to i16
  store i16 %conv7, ptr %ref_, align 4
  store ptr %this, ptr %ref.tmp11, align 8
  %call13 = invoke noundef i64 @_ZN4absl7debian218container_internal12raw_hash_setINS1_17FlatHashMapPolicyIPN3re26RegexpEiEENS1_6HashEqIS6_vE4HashENS9_2EqESaISt4pairIKS6_iEEE5eraseIS6_EEmRKT_(ptr noundef nonnull align 8 dereferenceable(40) getelementptr inbounds ([48 x i8], ptr @_ZN3re2L11ref_storageE, i64 0, i64 8), ptr noundef nonnull align 8 dereferenceable(8) %ref.tmp11)
          to label %if.end unwind label %lpad

lpad:                                             ; preds = %if.else, %if.then6, %if.then
  %2 = landingpad { ptr, i32 }
          cleanup
  invoke void @_ZN4absl7debian25Mutex6UnlockEv(ptr noundef nonnull align 8 dereferenceable(8) @_ZN3re2L11ref_storageE)
          to label %_ZN4absl7debian29MutexLockD2Ev.exit unwind label %terminate.lpad.i

terminate.lpad.i:                                 ; preds = %lpad
  %3 = landingpad { ptr, i32 }
          catch ptr null
  %4 = extractvalue { ptr, i32 } %3, 0
  call void @__clang_call_terminate(ptr %4) #27
  unreachable

_ZN4absl7debian29MutexLockD2Ev.exit:              ; preds = %lpad
  resume { ptr, i32 } %2

if.else:                                          ; preds = %invoke.cont3
  store ptr %this, ptr %ref.tmp16, align 8
  %call18 = invoke noundef nonnull align 4 dereferenceable(4) ptr @_ZN4absl7debian218container_internal12raw_hash_mapINS1_17FlatHashMapPolicyIPN3re26RegexpEiEENS1_6HashEqIS6_vE4HashENS9_2EqESaISt4pairIKS6_iEEEixIS6_S7_TnPT_LPS6_0EEEDTclsrT0_5valueclL_ZSt9addressofISE_ESJ_RSI_EclL_ZSt7declvalIRSE_EDTcl9__declvalISI_ELi0EEEvEEEEEOSI_(ptr noundef nonnull align 8 dereferenceable(40) getelementptr inbounds ([48 x i8], ptr @_ZN3re2L11ref_storageE, i64 0, i64 8), ptr noundef nonnull align 8 dereferenceable(8) %ref.tmp16)
          to label %invoke.cont17 unwind label %lpad

invoke.cont17:                                    ; preds = %if.else
  store i32 %sub, ptr %call18, align 4
  br label %if.end

if.end:                                           ; preds = %if.then6, %invoke.cont17
  invoke void @_ZN4absl7debian25Mutex6UnlockEv(ptr noundef nonnull align 8 dereferenceable(8) @_ZN3re2L11ref_storageE)
          to label %if.end25 unwind label %terminate.lpad.i3

terminate.lpad.i3:                                ; preds = %if.end
  %5 = landingpad { ptr, i32 }
          catch ptr null
  %6 = extractvalue { ptr, i32 } %5, 0
  call void @__clang_call_terminate(ptr %6) #27
  unreachable

if.end19:                                         ; preds = %entry
  %dec = add i16 %0, -1
  store i16 %dec, ptr %ref_, align 4
  %cmp23 = icmp eq i16 %dec, 0
  br i1 %cmp23, label %if.then24, label %if.end25

if.then24:                                        ; preds = %if.end19
  tail call void @_ZN3re26Regexp7DestroyEv(ptr noundef nonnull align 8 dereferenceable(40) %this)
  br label %if.end25

if.end25:                                         ; preds = %if.end, %if.then24, %if.end19
  ret void
}